(lp0
(lp1
V3TCFMTM8HEOEAVIRNEFMJQ9NPIK12O
p2
aS'https://imagesformturk.s3.eu-central-1.amazonaws.com/i01_01_5.bmp'
p3
aa(lp4
V3IZVJEBJ6AKZNSM0IR0H1XABI2YZ6R
p5
aS'https://imagesformturk.s3.eu-central-1.amazonaws.com/i02_10_1.bmp'
p6
aa.