(lp0
S'https://imagesformturk.s3.eu-central-1.amazonaws.com/i01_01_5.bmp'
p1
aS'https://imagesformturk.s3.eu-central-1.amazonaws.com/i01_02_1.bmp'
p2
aS'https://imagesformturk.s3.eu-central-1.amazonaws.com/i01_02_2.bmp'
p3
aS'https://imagesformturk.s3.eu-central-1.amazonaws.com/i01_02_3.bmp'
p4
aS'https://imagesformturk.s3.eu-central-1.amazonaws.com/i01_11_5.bmp'
p5
aS'https://imagesformturk.s3.eu-central-1.amazonaws.com/i01_12_1.bmp'
p6
aS'https://imagesformturk.s3.eu-central-1.amazonaws.com/i01_12_2.bmp'
p7
aS'https://imagesformturk.s3.eu-central-1.amazonaws.com/i02_10_1.bmp'
p8
aS'https://imagesformturk.s3.eu-central-1.amazonaws.com/i02_10_2.bmp'
p9
aS'https://imagesformturk.s3.eu-central-1.amazonaws.com/i02_11_5.bmp'
p10
aS'https://imagesformturk.s3.eu-central-1.amazonaws.com/i02_12_1.bmp'
p11
aS'https://imagesformturk.s3.eu-central-1.amazonaws.com/i02_12_2.bmp'
p12
a.